target datalayout = "e-m:e-p270:32:32-p271:32:32-p272:64:64-i64:64-i128:128-f80:128-n8:16:32:64-S128"
target triple = "x86_64-pc-linux-gnu"

%"class.smt::check_at_labels" = type <{ ptr, i8, [7 x i8] }>
%class.symbol = type { ptr }
%class.app = type { %class.expr, ptr, i32, %struct.app_flags, [0 x ptr] }
%class.expr = type { %class.ast }
%class.ast = type { i32, i32, i32, i32 }
%struct.app_flags = type <{ i16, i8, i8 }>
%class.decl = type { %class.ast, %class.symbol, ptr }
%class.decl_info = type <{ i32, i32, %class.vector.287, i8, [7 x i8] }>
%class.vector.287 = type { ptr }

; Function Attrs: mustprogress nounwind uwtable
define linkonce_odr hidden noundef zeroext i1 @_ZNK9decl_info10is_decl_ofEii(ptr noundef nonnull align 8 dereferenceable(17) %0, i32 noundef %1, i32 noundef %2) #4 comdat align 2 {
  %4 = alloca ptr, align 8
  %5 = alloca i32, align 4
  %6 = alloca i32, align 4
  store ptr %0, ptr %4, align 8, !tbaa !595
  store i32 %1, ptr %5, align 4, !tbaa !8
  store i32 %2, ptr %6, align 4, !tbaa !8
  %7 = load ptr, ptr %4, align 8
  %8 = getelementptr inbounds nuw %class.decl_info, ptr %7, i32 0, i32 0
  %9 = load i32, ptr %8, align 8, !tbaa !596
  %10 = load i32, ptr %5, align 4, !tbaa !8
  %11 = icmp eq i32 %9, %10
  br i1 %11, label %12, label %17

12:                                               ; preds = %3
  %13 = load i32, ptr %6, align 4, !tbaa !8
  %14 = getelementptr inbounds nuw %class.decl_info, ptr %7, i32 0, i32 1
  %15 = load i32, ptr %14, align 4, !tbaa !600
  %16 = icmp eq i32 %13, %15
  br label %17

17:                                               ; preds = %12, %3
  %18 = phi i1 [ false, %3 ], [ %16, %12 ]
  ret i1 %18
}

; Function Attrs: mustprogress uwtable
define linkonce_odr hidden noundef zeroext i1 @_ZNK4decl10is_decl_ofEii(ptr noundef nonnull align 8 dereferenceable(32) %0, i32 noundef %1, i32 noundef %2) #6 comdat align 2 {
  %4 = alloca ptr, align 8
  %5 = alloca i32, align 4
  %6 = alloca i32, align 4
  store ptr %0, ptr %4, align 8, !tbaa !590
  store i32 %1, ptr %5, align 4, !tbaa !8
  store i32 %2, ptr %6, align 4, !tbaa !8
  %7 = load ptr, ptr %4, align 8
  %8 = getelementptr inbounds nuw %class.decl, ptr %7, i32 0, i32 2
  %9 = load ptr, ptr %8, align 8, !tbaa !592
  %10 = icmp ne ptr %9, null
  br i1 %10, label %11, label %17

11:                                               ; preds = %3
  %12 = getelementptr inbounds nuw %class.decl, ptr %7, i32 0, i32 2
  %13 = load ptr, ptr %12, align 8, !tbaa !592
  %14 = load i32, ptr %5, align 4, !tbaa !8
  %15 = load i32, ptr %6, align 4, !tbaa !8
  %16 = call noundef zeroext i1 @_ZNK9decl_info10is_decl_ofEii(ptr noundef nonnull align 8 dereferenceable(17) %13, i32 noundef %14, i32 noundef %15)
  br label %17

17:                                               ; preds = %11, %3
  %18 = phi i1 [ false, %3 ], [ %16, %11 ]
  ret i1 %18
}

; Function Attrs: mustprogress uwtable
define linkonce_odr hidden noundef zeroext i1 @_ZNK3app9is_app_ofEii(ptr noundef nonnull align 8 dereferenceable(32) %0, i32 noundef %1, i32 noundef %2) #6 comdat align 2 {
  %4 = alloca ptr, align 8
  %5 = alloca i32, align 4
  %6 = alloca i32, align 4
  store ptr %0, ptr %4, align 8, !tbaa !35
  store i32 %1, ptr %5, align 4, !tbaa !8
  store i32 %2, ptr %6, align 4, !tbaa !8
  %7 = load ptr, ptr %4, align 8
  %8 = getelementptr inbounds nuw %class.app, ptr %7, i32 0, i32 1
  %9 = load ptr, ptr %8, align 8, !tbaa !589
  %10 = load i32, ptr %5, align 4, !tbaa !8
  %11 = load i32, ptr %6, align 4, !tbaa !8
  %12 = call noundef zeroext i1 @_ZNK4decl10is_decl_ofEii(ptr noundef nonnull align 8 dereferenceable(32) %9, i32 noundef %10, i32 noundef %11)
  ret i1 %12
}

; Function Attrs: inlinehint mustprogress nounwind uwtable
define linkonce_odr hidden noundef ptr @_Z6to_appPK3ast(ptr noundef %0) #8 comdat {
  %2 = alloca ptr, align 8
  store ptr %0, ptr %2, align 8, !tbaa !52
  %3 = load ptr, ptr %2, align 8, !tbaa !52
  ret ptr %3
}

; Function Attrs: inlinehint mustprogress uwtable
define linkonce_odr hidden noundef zeroext i1 @_Z9is_app_ofPK4exprii(ptr noundef %0, i32 noundef %1, i32 noundef %2) #7 comdat {
  %4 = alloca ptr, align 8
  %5 = alloca i32, align 4
  %6 = alloca i32, align 4
  store ptr %0, ptr %4, align 8, !tbaa !30
  store i32 %1, ptr %5, align 4, !tbaa !8
  store i32 %2, ptr %6, align 4, !tbaa !8
  %7 = load ptr, ptr %4, align 8, !tbaa !30
  %8 = call noundef i32 @_ZNK3ast8get_kindEv(ptr noundef nonnull align 4 dereferenceable(16) %7)
  %9 = icmp eq i32 %8, 0
  br i1 %9, label %10, label %16

10:                                               ; preds = %3
  %11 = load ptr, ptr %4, align 8, !tbaa !30
  %12 = call noundef ptr @_Z6to_appPK3ast(ptr noundef %11)
  %13 = load i32, ptr %5, align 4, !tbaa !8
  %14 = load i32, ptr %6, align 4, !tbaa !8
  %15 = call noundef zeroext i1 @_ZNK3app9is_app_ofEii(ptr noundef nonnull align 8 dereferenceable(32) %12, i32 noundef %13, i32 noundef %14)
  br label %16

16:                                               ; preds = %10, %3
  %17 = phi i1 [ false, %3 ], [ %15, %10 ]
  ret i1 %17
}

; Function Attrs: mustprogress nounwind uwtable
define linkonce_odr hidden noundef i32 @_ZNK3ast8get_kindEv(ptr noundef nonnull align 4 dereferenceable(16) %0) #4 comdat align 2 {
  %2 = alloca ptr, align 8
  store ptr %0, ptr %2, align 8, !tbaa !52
  %3 = load ptr, ptr %2, align 8
  %4 = getelementptr inbounds nuw %class.ast, ptr %3, i32 0, i32 1
  %5 = load i32, ptr %4, align 4
  %6 = and i32 %5, 65535
  ret i32 %6
}

; Function Attrs: mustprogress uwtable
define linkonce_odr hidden noundef zeroext i1 @_ZNK11ast_manager5is_orEPK4expr(ptr noundef nonnull align 8 dereferenceable(976) %0, ptr noundef %1) #6 comdat align 2 {
  %3 = alloca ptr, align 8
  %4 = alloca ptr, align 8
  store ptr %0, ptr %3, align 8, !tbaa !60
  store ptr %1, ptr %4, align 8, !tbaa !30
  %5 = load ptr, ptr %4, align 8, !tbaa !30
  %6 = call noundef zeroext i1 @_Z9is_app_ofPK4exprii(ptr noundef %5, i32 noundef 0, i32 noundef 6)
  ret i1 %6
}

; Function Attrs: inlinehint mustprogress nounwind uwtable
define linkonce_odr noundef nonnull align 4 dereferenceable(4) ptr @_ZSt3maxIjERKT_S2_S2_(ptr noundef nonnull align 4 dereferenceable(4) %0, ptr noundef nonnull align 4 dereferenceable(4) %1) #8 comdat {
  %3 = alloca ptr, align 8
  %4 = alloca ptr, align 8
  %5 = alloca ptr, align 8
  store ptr %0, ptr %4, align 8, !tbaa !61
  store ptr %1, ptr %5, align 8, !tbaa !61
  %6 = load ptr, ptr %4, align 8, !tbaa !61
  %7 = load i32, ptr %6, align 4, !tbaa !8
  %8 = load ptr, ptr %5, align 8, !tbaa !61
  %9 = load i32, ptr %8, align 4, !tbaa !8
  %10 = icmp ult i32 %7, %9
  br i1 %10, label %11, label %13

11:                                               ; preds = %2
  %12 = load ptr, ptr %5, align 8, !tbaa !61
  store ptr %12, ptr %3, align 8
  br label %15

13:                                               ; preds = %2
  %14 = load ptr, ptr %4, align 8, !tbaa !61
  store ptr %14, ptr %3, align 8
  br label %15

15:                                               ; preds = %13, %11
  %16 = load ptr, ptr %3, align 8
  ret ptr %16
}

; Function Attrs: mustprogress uwtable
define linkonce_odr hidden noundef zeroext i1 @_ZNK11ast_manager10is_impliesEPK4expr(ptr noundef nonnull align 8 dereferenceable(976) %0, ptr noundef %1) #6 comdat align 2 {
  %3 = alloca ptr, align 8
  %4 = alloca ptr, align 8
  store ptr %0, ptr %3, align 8, !tbaa !60
  store ptr %1, ptr %4, align 8, !tbaa !30
  %5 = load ptr, ptr %4, align 8, !tbaa !30
  %6 = call noundef zeroext i1 @_Z9is_app_ofPK4exprii(ptr noundef %5, i32 noundef 0, i32 noundef 9)
  ret i1 %6
}

; Function Attrs: mustprogress uwtable
define linkonce_odr hidden noundef zeroext i1 @_ZNK11ast_manager6is_notEPK4expr(ptr noundef nonnull align 8 dereferenceable(976) %0, ptr noundef %1) #6 comdat align 2 {
  %3 = alloca ptr, align 8
  %4 = alloca ptr, align 8
  store ptr %0, ptr %3, align 8, !tbaa !60
  store ptr %1, ptr %4, align 8, !tbaa !30
  %5 = load ptr, ptr %4, align 8, !tbaa !30
  %6 = call noundef zeroext i1 @_Z9is_app_ofPK4exprii(ptr noundef %5, i32 noundef 0, i32 noundef 8)
  ret i1 %6
}

; Function Attrs: mustprogress nounwind uwtable
define linkonce_odr hidden noundef ptr @_ZNK3app7get_argEj(ptr noundef nonnull align 8 dereferenceable(32) %0, i32 noundef %1) #4 comdat align 2 {
  %3 = alloca ptr, align 8
  %4 = alloca i32, align 4
  store ptr %0, ptr %3, align 8, !tbaa !35
  store i32 %1, ptr %4, align 4, !tbaa !8
  %5 = load ptr, ptr %3, align 8
  %6 = getelementptr inbounds nuw %class.app, ptr %5, i32 0, i32 4
  %7 = load i32, ptr %4, align 4, !tbaa !8
  %8 = zext i32 %7 to i64
  %9 = getelementptr inbounds nuw [0 x ptr], ptr %6, i64 0, i64 %8
  %10 = load ptr, ptr %9, align 8, !tbaa !30
  ret ptr %10
}

; Function Attrs: mustprogress uwtable
define linkonce_odr hidden noundef zeroext i1 @_ZNK11ast_manager6is_andEPK4expr(ptr noundef nonnull align 8 dereferenceable(976) %0, ptr noundef %1) #6 comdat align 2 {
  %3 = alloca ptr, align 8
  %4 = alloca ptr, align 8
  store ptr %0, ptr %3, align 8, !tbaa !60
  store ptr %1, ptr %4, align 8, !tbaa !30
  %5 = load ptr, ptr %4, align 8, !tbaa !30
  %6 = call noundef zeroext i1 @_Z9is_app_ofPK4exprii(ptr noundef %5, i32 noundef 0, i32 noundef 5)
  ret i1 %6
}

; Function Attrs: mustprogress nounwind uwtable
define linkonce_odr hidden noundef i32 @_ZNK3app12get_num_argsEv(ptr noundef nonnull align 8 dereferenceable(32) %0) #4 comdat align 2 {
  %2 = alloca ptr, align 8
  store ptr %0, ptr %2, align 8, !tbaa !35
  %3 = load ptr, ptr %2, align 8
  %4 = getelementptr inbounds nuw %class.app, ptr %3, i32 0, i32 2
  %5 = load i32, ptr %4, align 8, !tbaa !54
  ret i32 %5
}

; Function Attrs: inlinehint mustprogress nounwind uwtable
define linkonce_odr hidden noundef ptr @_Z6to_appP3ast(ptr noundef %0) #8 comdat {
  %2 = alloca ptr, align 8
  store ptr %0, ptr %2, align 8, !tbaa !52
  %3 = load ptr, ptr %2, align 8, !tbaa !52
  ret ptr %3
}

; Function Attrs: inlinehint mustprogress uwtable
define linkonce_odr hidden noundef zeroext i1 @_Z6is_appPK3ast(ptr noundef %0) #7 comdat {
  %2 = alloca ptr, align 8
  store ptr %0, ptr %2, align 8, !tbaa !52
  %3 = load ptr, ptr %2, align 8, !tbaa !52
  %4 = call noundef i32 @_ZNK3ast8get_kindEv(ptr noundef nonnull align 4 dereferenceable(16) %3)
  %5 = icmp eq i32 %4, 0
  ret i1 %5
}

; Function Attrs: mustprogress uwtable
define hidden noundef i32 @_ZN3smt15check_at_labels19count_at_labels_posEP4expr(ptr noundef nonnull align 8 dereferenceable(9) %0, ptr noundef %1) #6 align 2 {
  %3 = alloca i32, align 4
  %4 = alloca ptr, align 8
  %5 = alloca ptr, align 8
  %6 = alloca ptr, align 8
  %7 = alloca i32, align 4
  %8 = alloca i32, align 4
  %9 = alloca i32, align 4
  %10 = alloca i32, align 4
  %11 = alloca i32, align 4
  %12 = alloca i32, align 4
  %13 = alloca i32, align 4
  store ptr %0, ptr %4, align 8, !tbaa !28
  store ptr %1, ptr %5, align 8, !tbaa !30
  %14 = load ptr, ptr %4, align 8
  %15 = load ptr, ptr %5, align 8, !tbaa !30
  %16 = call noundef zeroext i1 @_Z6is_appPK3ast(ptr noundef %15)
  br i1 %16, label %18, label %17

17:                                               ; preds = %2
  store i32 0, ptr %3, align 4
  br label %107

18:                                               ; preds = %2
  call void @llvm.lifetime.start.p0(i64 8, ptr %6) #3
  %19 = load ptr, ptr %5, align 8, !tbaa !30
  %20 = call noundef ptr @_Z6to_appP3ast(ptr noundef %19)
  store ptr %20, ptr %6, align 8, !tbaa !35
  call void @llvm.lifetime.start.p0(i64 4, ptr %7) #3
  %21 = load ptr, ptr %6, align 8, !tbaa !35
  %22 = call noundef i32 @_ZNK3app12get_num_argsEv(ptr noundef nonnull align 8 dereferenceable(32) %21)
  store i32 %22, ptr %7, align 4, !tbaa !8
  call void @llvm.lifetime.start.p0(i64 4, ptr %8) #3
  %23 = load ptr, ptr %5, align 8, !tbaa !30
  %24 = call noundef i32 @_ZN3smt15check_at_labels19count_at_labels_litEP4exprb(ptr noundef nonnull align 8 dereferenceable(9) %14, ptr noundef %23, i1 noundef zeroext true)
  store i32 %24, ptr %8, align 4, !tbaa !8
  %25 = getelementptr inbounds nuw %"class.smt::check_at_labels", ptr %14, i32 0, i32 0
  %26 = load ptr, ptr %25, align 8, !tbaa !37
  %27 = load ptr, ptr %5, align 8, !tbaa !30
  %28 = call noundef zeroext i1 @_ZNK11ast_manager6is_andEPK4expr(ptr noundef nonnull align 8 dereferenceable(976) %26, ptr noundef %27)
  br i1 %28, label %29, label %46

29:                                               ; preds = %18
  call void @llvm.lifetime.start.p0(i64 4, ptr %9) #3
  store i32 0, ptr %9, align 4, !tbaa !8
  br label %30

30:                                               ; preds = %42, %29
  %31 = load i32, ptr %9, align 4, !tbaa !8
  %32 = load i32, ptr %7, align 4, !tbaa !8
  %33 = icmp ult i32 %31, %32
  br i1 %33, label %35, label %34

34:                                               ; preds = %30
  call void @llvm.lifetime.end.p0(i64 4, ptr %9) #3
  br label %45

35:                                               ; preds = %30
  %36 = load ptr, ptr %6, align 8, !tbaa !35
  %37 = load i32, ptr %9, align 4, !tbaa !8
  %38 = call noundef ptr @_ZNK3app7get_argEj(ptr noundef nonnull align 8 dereferenceable(32) %36, i32 noundef %37)
  %39 = call noundef i32 @_ZN3smt15check_at_labels19count_at_labels_posEP4expr(ptr noundef nonnull align 8 dereferenceable(9) %14, ptr noundef %38)
  %40 = load i32, ptr %8, align 4, !tbaa !8
  %41 = add i32 %40, %39
  store i32 %41, ptr %8, align 4, !tbaa !8
  br label %42

42:                                               ; preds = %35
  %43 = load i32, ptr %9, align 4, !tbaa !8
  %44 = add i32 %43, 1
  store i32 %44, ptr %9, align 4, !tbaa !8
  br label %30, !llvm.loop !38

45:                                               ; preds = %34
  br label %96

46:                                               ; preds = %18
  %47 = getelementptr inbounds nuw %"class.smt::check_at_labels", ptr %14, i32 0, i32 0
  %48 = load ptr, ptr %47, align 8, !tbaa !37
  %49 = load ptr, ptr %5, align 8, !tbaa !30
  %50 = call noundef zeroext i1 @_ZNK11ast_manager6is_notEPK4expr(ptr noundef nonnull align 8 dereferenceable(976) %48, ptr noundef %49)
  br i1 %50, label %51, label %55

51:                                               ; preds = %46
  %52 = load ptr, ptr %6, align 8, !tbaa !35
  %53 = call noundef ptr @_ZNK3app7get_argEj(ptr noundef nonnull align 8 dereferenceable(32) %52, i32 noundef 0)
  %54 = call noundef i32 @_ZN3smt15check_at_labels19count_at_labels_negEP4expr(ptr noundef nonnull align 8 dereferenceable(9) %14, ptr noundef %53)
  store i32 %54, ptr %8, align 4, !tbaa !8
  br label %95

55:                                               ; preds = %46
  %56 = getelementptr inbounds nuw %"class.smt::check_at_labels", ptr %14, i32 0, i32 0
  %57 = load ptr, ptr %56, align 8, !tbaa !37
  %58 = load ptr, ptr %5, align 8, !tbaa !30
  %59 = call noundef zeroext i1 @_ZNK11ast_manager10is_impliesEPK4expr(ptr noundef nonnull align 8 dereferenceable(976) %57, ptr noundef %58)
  br i1 %59, label %60, label %71

60:                                               ; preds = %55
  call void @llvm.lifetime.start.p0(i64 4, ptr %10) #3
  %61 = load ptr, ptr %6, align 8, !tbaa !35
  %62 = call noundef ptr @_ZNK3app7get_argEj(ptr noundef nonnull align 8 dereferenceable(32) %61, i32 noundef 0)
  %63 = call noundef i32 @_ZN3smt15check_at_labels19count_at_labels_negEP4expr(ptr noundef nonnull align 8 dereferenceable(9) %14, ptr noundef %62)
  store i32 %63, ptr %10, align 4, !tbaa !8
  %64 = call noundef nonnull align 4 dereferenceable(4) ptr @_ZSt3maxIjERKT_S2_S2_(ptr noundef nonnull align 4 dereferenceable(4) %8, ptr noundef nonnull align 4 dereferenceable(4) %10)
  %65 = load i32, ptr %64, align 4, !tbaa !8
  store i32 %65, ptr %8, align 4, !tbaa !8
  call void @llvm.lifetime.end.p0(i64 4, ptr %10) #3
  call void @llvm.lifetime.start.p0(i64 4, ptr %11) #3
  %66 = load ptr, ptr %6, align 8, !tbaa !35
  %67 = call noundef ptr @_ZNK3app7get_argEj(ptr noundef nonnull align 8 dereferenceable(32) %66, i32 noundef 1)
  %68 = call noundef i32 @_ZN3smt15check_at_labels19count_at_labels_posEP4expr(ptr noundef nonnull align 8 dereferenceable(9) %14, ptr noundef %67)
  store i32 %68, ptr %11, align 4, !tbaa !8
  %69 = call noundef nonnull align 4 dereferenceable(4) ptr @_ZSt3maxIjERKT_S2_S2_(ptr noundef nonnull align 4 dereferenceable(4) %8, ptr noundef nonnull align 4 dereferenceable(4) %11)
  %70 = load i32, ptr %69, align 4, !tbaa !8
  store i32 %70, ptr %8, align 4, !tbaa !8
  call void @llvm.lifetime.end.p0(i64 4, ptr %11) #3
  br label %94

71:                                               ; preds = %55
  %72 = getelementptr inbounds nuw %"class.smt::check_at_labels", ptr %14, i32 0, i32 0
  %73 = load ptr, ptr %72, align 8, !tbaa !37
  %74 = load ptr, ptr %5, align 8, !tbaa !30
  %75 = call noundef zeroext i1 @_ZNK11ast_manager5is_orEPK4expr(ptr noundef nonnull align 8 dereferenceable(976) %73, ptr noundef %74)
  br i1 %75, label %76, label %93

76:                                               ; preds = %71
  call void @llvm.lifetime.start.p0(i64 4, ptr %12) #3
  store i32 0, ptr %12, align 4, !tbaa !8
  br label %77

77:                                               ; preds = %89, %76
  %78 = load i32, ptr %12, align 4, !tbaa !8
  %79 = load i32, ptr %7, align 4, !tbaa !8
  %80 = icmp ult i32 %78, %79
  br i1 %80, label %82, label %81

81:                                               ; preds = %77
  call void @llvm.lifetime.end.p0(i64 4, ptr %12) #3
  br label %92

82:                                               ; preds = %77
  call void @llvm.lifetime.start.p0(i64 4, ptr %13) #3
  %83 = load ptr, ptr %6, align 8, !tbaa !35
  %84 = load i32, ptr %12, align 4, !tbaa !8
  %85 = call noundef ptr @_ZNK3app7get_argEj(ptr noundef nonnull align 8 dereferenceable(32) %83, i32 noundef %84)
  %86 = call noundef i32 @_ZN3smt15check_at_labels19count_at_labels_posEP4expr(ptr noundef nonnull align 8 dereferenceable(9) %14, ptr noundef %85)
  store i32 %86, ptr %13, align 4, !tbaa !8
  %87 = call noundef nonnull align 4 dereferenceable(4) ptr @_ZSt3maxIjERKT_S2_S2_(ptr noundef nonnull align 4 dereferenceable(4) %8, ptr noundef nonnull align 4 dereferenceable(4) %13)
  %88 = load i32, ptr %87, align 4, !tbaa !8
  store i32 %88, ptr %8, align 4, !tbaa !8
  call void @llvm.lifetime.end.p0(i64 4, ptr %13) #3
  br label %89

89:                                               ; preds = %82
  %90 = load i32, ptr %12, align 4, !tbaa !8
  %91 = add i32 %90, 1
  store i32 %91, ptr %12, align 4, !tbaa !8
  br label %77, !llvm.loop !40

92:                                               ; preds = %81
  br label %93

93:                                               ; preds = %92, %71
  br label %94

94:                                               ; preds = %93, %60
  br label %95

95:                                               ; preds = %94, %51
  br label %96

96:                                               ; preds = %95, %45
  %97 = load i32, ptr %8, align 4, !tbaa !8
  %98 = icmp ugt i32 %97, 1
  br i1 %98, label %99, label %105

99:                                               ; preds = %96
  %100 = getelementptr inbounds nuw %"class.smt::check_at_labels", ptr %14, i32 0, i32 1
  %101 = load i8, ptr %100, align 8, !tbaa !32, !range !12, !noundef !13
  %102 = trunc i8 %101 to i1
  br i1 %102, label %103, label %105

103:                                              ; preds = %99
  %104 = getelementptr inbounds nuw %"class.smt::check_at_labels", ptr %14, i32 0, i32 1
  store i8 0, ptr %104, align 8, !tbaa !32
  br label %105

105:                                              ; preds = %103, %99, %96
  %106 = load i32, ptr %8, align 4, !tbaa !8
  store i32 %106, ptr %3, align 4
  call void @llvm.lifetime.end.p0(i64 4, ptr %8) #3
  call void @llvm.lifetime.end.p0(i64 4, ptr %7) #3
  call void @llvm.lifetime.end.p0(i64 8, ptr %6) #3
  br label %107

107:                                              ; preds = %105, %17
  %108 = load i32, ptr %3, align 4
  ret i32 %108
}