; Function Attrs: mustprogress uwtable
define hidden noundef i32 @_ZN3smt15check_at_labels19count_at_labels_posEP4expr(ptr noundef nonnull align 8 captures(none) dereferenceable(9) %0, ptr noundef %1) local_unnamed_addr #4 align 2 {
  %3 = getelementptr inbounds nuw i8, ptr %1, i64 4
  %4 = load i32, ptr %3, align 4
  %5 = and i32 %4, 65535
  %6 = icmp eq i32 %5, 0
  br i1 %6, label %7, label %72

7:                                                ; preds = %2
  %8 = getelementptr inbounds nuw i8, ptr %1, i64 24
  %9 = load i32, ptr %8, align 8, !tbaa !10
  %10 = tail call noundef i32 @_ZN3smt15check_at_labels19count_at_labels_litEP4exprb(ptr noundef nonnull align 8 dereferenceable(9) %0, ptr noundef nonnull %1, i1 noundef zeroext true)
  %11 = load i32, ptr %3, align 4
  %12 = and i32 %11, 65535
  %13 = icmp eq i32 %12, 0
  br i1 %13, label %14, label %_ZNK11ast_manager5is_orEPK4expr.exit.thread

14:                                               ; preds = %7
  %15 = getelementptr inbounds nuw i8, ptr %1, i64 16
  %16 = load ptr, ptr %15, align 8, !tbaa !17
  %17 = getelementptr inbounds nuw i8, ptr %16, i64 24
  %18 = load ptr, ptr %17, align 8, !tbaa !18
  %.not.i.i.i.i = icmp eq ptr %18, null
  br i1 %.not.i.i.i.i, label %_ZNK11ast_manager5is_orEPK4expr.exit.thread, label %_ZNK11ast_manager6is_andEPK4expr.exit

_ZNK11ast_manager6is_andEPK4expr.exit:            ; preds = %14
  %19 = load i32, ptr %18, align 8, !tbaa !23
  %20 = icmp eq i32 %19, 0
  %21 = getelementptr inbounds nuw i8, ptr %18, i64 4
  %22 = load i32, ptr %21, align 4
  %23 = icmp eq i32 %22, 5
  %24 = select i1 %20, i1 %23, i1 false
  br i1 %24, label %.preheader53, label %_ZNK11ast_manager6is_notEPK4expr.exit

.preheader53:                                     ; preds = %_ZNK11ast_manager6is_andEPK4expr.exit
  %.not = icmp eq i32 %9, 0
  br i1 %.not, label %_ZNK11ast_manager5is_orEPK4expr.exit.thread, label %.lr.ph

.lr.ph:                                           ; preds = %.preheader53
  %25 = getelementptr inbounds nuw i8, ptr %1, i64 32
  %wide.trip.count = zext i32 %9 to i64
  br label %26

26:                                               ; preds = %.lr.ph, %26
  %indvars.iv = phi i64 [ 0, %.lr.ph ], [ %indvars.iv.next, %26 ]
  %.04755 = phi i32 [ %10, %.lr.ph ], [ %30, %26 ]
  %27 = getelementptr inbounds nuw [0 x ptr], ptr %25, i64 0, i64 %indvars.iv
  %28 = load ptr, ptr %27, align 8, !tbaa !27
  %29 = tail call noundef i32 @_ZN3smt15check_at_labels19count_at_labels_posEP4expr(ptr noundef nonnull align 8 dereferenceable(9) %0, ptr noundef %28)
  %30 = add i32 %29, %.04755
  %indvars.iv.next = add nuw nsw i64 %indvars.iv, 1
  %exitcond.not = icmp eq i64 %indvars.iv.next, %wide.trip.count
  br i1 %exitcond.not, label %_ZNK11ast_manager5is_orEPK4expr.exit.thread, label %26, !llvm.loop !29

_ZNK11ast_manager6is_notEPK4expr.exit:            ; preds = %_ZNK11ast_manager6is_andEPK4expr.exit
  %31 = load i32, ptr %18, align 8, !tbaa !23
  %32 = icmp eq i32 %31, 0
  %33 = getelementptr inbounds nuw i8, ptr %18, i64 4
  %34 = load i32, ptr %33, align 4
  %35 = icmp eq i32 %34, 8
  %36 = select i1 %32, i1 %35, i1 false
  br i1 %36, label %37, label %_ZNK11ast_manager10is_impliesEPK4expr.exit

37:                                               ; preds = %_ZNK11ast_manager6is_notEPK4expr.exit
  %38 = getelementptr inbounds nuw i8, ptr %1, i64 32
  %39 = load ptr, ptr %38, align 8, !tbaa !27
  %40 = tail call noundef i32 @_ZN3smt15check_at_labels19count_at_labels_negEP4expr(ptr noundef nonnull align 8 dereferenceable(9) %0, ptr noundef %39)
  br label %_ZNK11ast_manager5is_orEPK4expr.exit.thread

_ZNK11ast_manager10is_impliesEPK4expr.exit:       ; preds = %_ZNK11ast_manager6is_notEPK4expr.exit
  %41 = load i32, ptr %18, align 8, !tbaa !23
  %42 = icmp eq i32 %41, 0
  %43 = getelementptr inbounds nuw i8, ptr %18, i64 4
  %44 = load i32, ptr %43, align 4
  %45 = icmp eq i32 %44, 9
  %46 = select i1 %42, i1 %45, i1 false
  br i1 %46, label %47, label %_ZNK11ast_manager5is_orEPK4expr.exit

47:                                               ; preds = %_ZNK11ast_manager10is_impliesEPK4expr.exit
  %48 = getelementptr inbounds nuw i8, ptr %1, i64 32
  %49 = load ptr, ptr %48, align 8, !tbaa !27
  %50 = tail call noundef i32 @_ZN3smt15check_at_labels19count_at_labels_negEP4expr(ptr noundef nonnull align 8 dereferenceable(9) %0, ptr noundef %49)
  %.sroa.speculated35 = tail call i32 @llvm.umax.i32(i32 %10, i32 %50)
  %51 = getelementptr inbounds nuw i8, ptr %1, i64 40
  %52 = load ptr, ptr %51, align 8, !tbaa !27
  %53 = tail call noundef i32 @_ZN3smt15check_at_labels19count_at_labels_posEP4expr(ptr noundef nonnull align 8 dereferenceable(9) %0, ptr noundef %52)
  %.sroa.speculated31 = tail call i32 @llvm.umax.i32(i32 %.sroa.speculated35, i32 %53)
  br label %_ZNK11ast_manager5is_orEPK4expr.exit.thread

_ZNK11ast_manager5is_orEPK4expr.exit:             ; preds = %_ZNK11ast_manager10is_impliesEPK4expr.exit
  %54 = load i32, ptr %18, align 8, !tbaa !23
  %55 = icmp eq i32 %54, 0
  %56 = getelementptr inbounds nuw i8, ptr %18, i64 4
  %57 = load i32, ptr %56, align 4
  %58 = icmp eq i32 %57, 6
  %59 = select i1 %55, i1 %58, i1 false
  %60 = icmp ne i32 %9, 0
  %or.cond = select i1 %59, i1 %60, i1 false
  br i1 %or.cond, label %.lr.ph59, label %_ZNK11ast_manager5is_orEPK4expr.exit.thread

.lr.ph59:                                         ; preds = %_ZNK11ast_manager5is_orEPK4expr.exit
  %61 = getelementptr inbounds nuw i8, ptr %1, i64 32
  %wide.trip.count66 = zext i32 %9 to i64
  br label %62

62:                                               ; preds = %.lr.ph59, %62
  %indvars.iv63 = phi i64 [ 0, %.lr.ph59 ], [ %indvars.iv.next64, %62 ]
  %.257 = phi i32 [ %10, %.lr.ph59 ], [ %.sroa.speculated, %62 ]
  %63 = getelementptr inbounds nuw [0 x ptr], ptr %61, i64 0, i64 %indvars.iv63
  %64 = load ptr, ptr %63, align 8, !tbaa !27
  %65 = tail call noundef i32 @_ZN3smt15check_at_labels19count_at_labels_posEP4expr(ptr noundef nonnull align 8 dereferenceable(9) %0, ptr noundef %64)
  %.sroa.speculated = tail call i32 @llvm.umax.i32(i32 %.257, i32 %65)
  %indvars.iv.next64 = add nuw nsw i64 %indvars.iv63, 1
  %exitcond67.not = icmp eq i64 %indvars.iv.next64, %wide.trip.count66
  br i1 %exitcond67.not, label %_ZNK11ast_manager5is_orEPK4expr.exit.thread, label %62, !llvm.loop !31

_ZNK11ast_manager5is_orEPK4expr.exit.thread:      ; preds = %62, %26, %14, %.preheader53, %7, %37, %_ZNK11ast_manager5is_orEPK4expr.exit, %47
  %.1 = phi i32 [ %40, %37 ], [ %.sroa.speculated31, %47 ], [ %10, %_ZNK11ast_manager5is_orEPK4expr.exit ], [ %10, %7 ], [ %10, %.preheader53 ], [ %10, %14 ], [ %30, %26 ], [ %.sroa.speculated, %62 ]
  %66 = icmp ugt i32 %.1, 1
  br i1 %66, label %67, label %72

67:                                               ; preds = %_ZNK11ast_manager5is_orEPK4expr.exit.thread
  %68 = getelementptr inbounds nuw i8, ptr %0, i64 8
  %69 = load i8, ptr %68, align 8, !tbaa !3, !range !32, !noundef !33
  %70 = trunc nuw i8 %69 to i1
  br i1 %70, label %71, label %72

71:                                               ; preds = %67
  store i8 0, ptr %68, align 8, !tbaa !3
  br label %72

72:                                               ; preds = %_ZNK11ast_manager5is_orEPK4expr.exit.thread, %67, %71, %2
  %.023 = phi i32 [ 0, %2 ], [ %.1, %71 ], [ %.1, %67 ], [ %.1, %_ZNK11ast_manager5is_orEPK4expr.exit.thread ]
  ret i32 %.023
}